target datalayout = "e-m:e-p270:32:32-p271:32:32-p272:64:64-i64:64-i128:128-f80:128-n8:16:32:64-S128"
target triple = "x86_64-pc-linux-gnu"

%"struct.std::__detail::_Hash_node_base" = type { ptr }
%"struct.std::__detail::_Prime_rehash_policy" = type { float, i64 }
%struct.FaceGroup = type { ptr, i32, %"class.std::vector.72", %"class.std::unordered_set", i32, float, float, double, i8, [7 x i8], %"struct.FaceGroup::Cache" }
%"class.std::vector.72" = type { %"struct.std::_Vector_base.73" }
%"struct.std::_Vector_base.73" = type { %"struct.std::_Vector_base<MeshFace *, std::allocator<MeshFace *>>::_Vector_impl" }
%"struct.std::_Vector_base<MeshFace *, std::allocator<MeshFace *>>::_Vector_impl" = type { %"struct.std::_Vector_base<MeshFace *, std::allocator<MeshFace *>>::_Vector_impl_data" }
%"struct.std::_Vector_base<MeshFace *, std::allocator<MeshFace *>>::_Vector_impl_data" = type { ptr, ptr, ptr }
%"class.std::unordered_set" = type { %"class.std::_Hashtable.77" }
%"class.std::_Hashtable.77" = type { ptr, i64, %"struct.std::__detail::_Hash_node_base", i64, %"struct.std::__detail::_Prime_rehash_policy", ptr }
%"struct.FaceGroup::Cache" = type <{ double, double, double, double, %"class.vcg::Point3", i8, [7 x i8] }>
%"class.vcg::Point3" = type { [3 x double] }
%"class.std::__shared_ptr" = type { ptr, %"class.std::__shared_count" }
%"class.std::__shared_count" = type { ptr }
%struct.MeshGraph = type { ptr, %"class.std::unordered_map.260", %"class.std::shared_ptr.280" }
%"class.std::unordered_map.260" = type { %"class.std::_Hashtable.261" }
%"class.std::_Hashtable.261" = type { ptr, i64, %"struct.std::__detail::_Hash_node_base", i64, %"struct.std::__detail::_Prime_rehash_policy", ptr }
%"class.std::shared_ptr.280" = type { %"class.std::__shared_ptr.281" }
%"class.std::__shared_ptr.281" = type { ptr, %"class.std::__shared_count" }
%"struct.std::__detail::_Node_iterator_base.284" = type { ptr }
%"struct.std::pair.285" = type { i32, %"class.std::shared_ptr" }
%"class.std::shared_ptr" = type { %"class.std::__shared_ptr" }
%"struct.std::__detail::_Hash_node_value_base.289" = type { %"struct.__gnu_cxx::__aligned_buffer.290" }
%"struct.__gnu_cxx::__aligned_buffer.290" = type { %"union.std::aligned_storage<24, 8>::type" }
%"union.std::aligned_storage<24, 8>::type" = type { [24 x i8] }
%"struct.std::__detail::_Node_const_iterator.295" = type { %"struct.std::__detail::_Node_iterator_base.284" }

; Function Attrs: mustprogress nounwind uwtable
define linkonce_odr noundef ptr @_ZN9__gnu_cxx16__aligned_bufferISt4pairIKiSt10shared_ptrI9FaceGroupEEE7_M_addrEv(ptr noundef nonnull align 8 dereferenceable(24) %0) #4 comdat align 2 {
  %2 = alloca ptr, align 8
  store ptr %0, ptr %2, align 8
  %3 = load ptr, ptr %2, align 8
  %4 = getelementptr inbounds %"struct.__gnu_cxx::__aligned_buffer.290", ptr %3, i32 0, i32 0
  ret ptr %4
}

; Function Attrs: mustprogress nounwind uwtable
define linkonce_odr noundef ptr @_ZN9__gnu_cxx16__aligned_bufferISt4pairIKiSt10shared_ptrI9FaceGroupEEE6_M_ptrEv(ptr noundef nonnull align 8 dereferenceable(24) %0) #4 comdat align 2 {
  %2 = alloca ptr, align 8
  store ptr %0, ptr %2, align 8
  %3 = load ptr, ptr %2, align 8
  %4 = call noundef ptr @_ZN9__gnu_cxx16__aligned_bufferISt4pairIKiSt10shared_ptrI9FaceGroupEEE7_M_addrEv(ptr noundef nonnull align 8 dereferenceable(24) %3) #3
  ret ptr %4
}

; Function Attrs: mustprogress nounwind uwtable
define linkonce_odr void @_ZNSt8__detail19_Node_iterator_baseISt4pairIKiSt10shared_ptrI9FaceGroupEELb0EEC2EPNS_10_Hash_nodeIS6_Lb0EEE(ptr noundef nonnull align 8 dereferenceable(8) %0, ptr noundef %1) unnamed_addr #4 comdat align 2 {
  %3 = alloca ptr, align 8
  %4 = alloca ptr, align 8
  store ptr %0, ptr %3, align 8
  store ptr %1, ptr %4, align 8
  %5 = load ptr, ptr %3, align 8
  %6 = getelementptr inbounds %"struct.std::__detail::_Node_iterator_base.284", ptr %5, i32 0, i32 0
  %7 = load ptr, ptr %4, align 8
  store ptr %7, ptr %6, align 8
  ret void
}

; Function Attrs: mustprogress nounwind uwtable
define linkonce_odr noundef ptr @_ZNKSt8__detail10_Hash_nodeISt4pairIKiSt10shared_ptrI9FaceGroupEELb0EE7_M_nextEv(ptr noundef nonnull align 8 dereferenceable(32) %0) #4 comdat align 2 {
  %2 = alloca ptr, align 8
  store ptr %0, ptr %2, align 8
  %3 = load ptr, ptr %2, align 8
  %4 = getelementptr inbounds %"struct.std::__detail::_Hash_node_base", ptr %3, i32 0, i32 0
  %5 = load ptr, ptr %4, align 8
  ret ptr %5
}

; Function Attrs: mustprogress nounwind uwtable
define linkonce_odr noundef ptr @_ZNKSt12__shared_ptrI9FaceGroupLN9__gnu_cxx12_Lock_policyE2EE3getEv(ptr noundef nonnull align 8 dereferenceable(16) %0) #4 comdat align 2 {
  %2 = alloca ptr, align 8
  store ptr %0, ptr %2, align 8
  %3 = load ptr, ptr %2, align 8
  %4 = getelementptr inbounds %"class.std::__shared_ptr", ptr %3, i32 0, i32 0
  %5 = load ptr, ptr %4, align 8
  ret ptr %5
}

; Function Attrs: mustprogress nounwind uwtable
define linkonce_odr noundef ptr @_ZNSt8__detail21_Hash_node_value_baseISt4pairIKiSt10shared_ptrI9FaceGroupEEE9_M_valptrEv(ptr noundef nonnull align 8 dereferenceable(24) %0) #4 comdat align 2 {
  %2 = alloca ptr, align 8
  store ptr %0, ptr %2, align 8
  %3 = load ptr, ptr %2, align 8
  %4 = getelementptr inbounds %"struct.std::__detail::_Hash_node_value_base.289", ptr %3, i32 0, i32 0
  %5 = call noundef ptr @_ZN9__gnu_cxx16__aligned_bufferISt4pairIKiSt10shared_ptrI9FaceGroupEEE6_M_ptrEv(ptr noundef nonnull align 8 dereferenceable(24) %4) #3
  ret ptr %5
}

; Function Attrs: mustprogress nounwind uwtable
define linkonce_odr void @_ZNSt8__detail20_Node_const_iteratorISt4pairIKiSt10shared_ptrI9FaceGroupEELb0ELb0EEC2EPNS_10_Hash_nodeIS6_Lb0EEE(ptr noundef nonnull align 8 dereferenceable(8) %0, ptr noundef %1) unnamed_addr #4 comdat align 2 {
  %3 = alloca ptr, align 8
  %4 = alloca ptr, align 8
  store ptr %0, ptr %3, align 8
  store ptr %1, ptr %4, align 8
  %5 = load ptr, ptr %3, align 8
  %6 = load ptr, ptr %4, align 8
  call void @_ZNSt8__detail19_Node_iterator_baseISt4pairIKiSt10shared_ptrI9FaceGroupEELb0EEC2EPNS_10_Hash_nodeIS6_Lb0EEE(ptr noundef nonnull align 8 dereferenceable(8) %5, ptr noundef %6) #3
  ret void
}

; Function Attrs: mustprogress nounwind uwtable
define linkonce_odr noundef ptr @_ZNKSt10_HashtableIiSt4pairIKiSt10shared_ptrI9FaceGroupEESaIS5_ENSt8__detail10_Select1stESt8equal_toIiESt4hashIiENS7_18_Mod_range_hashingENS7_20_Default_ranged_hashENS7_20_Prime_rehash_policyENS7_17_Hashtable_traitsILb0ELb0ELb1EEEE8_M_beginEv(ptr noundef nonnull align 8 dereferenceable(56) %0) #4 comdat align 2 {
  %2 = alloca ptr, align 8
  store ptr %0, ptr %2, align 8
  %3 = load ptr, ptr %2, align 8
  %4 = getelementptr inbounds %"class.std::_Hashtable.261", ptr %3, i32 0, i32 2
  %5 = getelementptr inbounds %"struct.std::__detail::_Hash_node_base", ptr %4, i32 0, i32 0
  %6 = load ptr, ptr %5, align 8
  ret ptr %6
}

; Function Attrs: mustprogress nounwind uwtable
define linkonce_odr void @_ZNSt8__detail19_Node_iterator_baseISt4pairIKiSt10shared_ptrI9FaceGroupEELb0EE7_M_incrEv(ptr noundef nonnull align 8 dereferenceable(8) %0) #4 comdat align 2 {
  %2 = alloca ptr, align 8
  store ptr %0, ptr %2, align 8
  %3 = load ptr, ptr %2, align 8
  %4 = getelementptr inbounds %"struct.std::__detail::_Node_iterator_base.284", ptr %3, i32 0, i32 0
  %5 = load ptr, ptr %4, align 8
  %6 = call noundef ptr @_ZNKSt8__detail10_Hash_nodeISt4pairIKiSt10shared_ptrI9FaceGroupEELb0EE7_M_nextEv(ptr noundef nonnull align 8 dereferenceable(32) %5) #3
  %7 = getelementptr inbounds %"struct.std::__detail::_Node_iterator_base.284", ptr %3, i32 0, i32 0
  store ptr %6, ptr %7, align 8
  ret void
}

; Function Attrs: mustprogress nounwind uwtable
define linkonce_odr noundef ptr @_ZNKSt19__shared_ptr_accessI9FaceGroupLN9__gnu_cxx12_Lock_policyE2ELb0ELb0EE6_M_getEv(ptr noundef nonnull align 1 dereferenceable(1) %0) #4 comdat align 2 {
  %2 = alloca ptr, align 8
  store ptr %0, ptr %2, align 8
  %3 = load ptr, ptr %2, align 8
  %4 = call noundef ptr @_ZNKSt12__shared_ptrI9FaceGroupLN9__gnu_cxx12_Lock_policyE2EE3getEv(ptr noundef nonnull align 8 dereferenceable(16) %3) #3
  ret ptr %4
}

; Function Attrs: mustprogress nounwind uwtable
define linkonce_odr noundef nonnull align 8 dereferenceable(24) ptr @_ZNSt8__detail21_Hash_node_value_baseISt4pairIKiSt10shared_ptrI9FaceGroupEEE4_M_vEv(ptr noundef nonnull align 8 dereferenceable(24) %0) #4 comdat align 2 {
  %2 = alloca ptr, align 8
  store ptr %0, ptr %2, align 8
  %3 = load ptr, ptr %2, align 8
  %4 = call noundef ptr @_ZNSt8__detail21_Hash_node_value_baseISt4pairIKiSt10shared_ptrI9FaceGroupEEE9_M_valptrEv(ptr noundef nonnull align 8 dereferenceable(24) %3) #3
  ret ptr %4
}

; Function Attrs: mustprogress nounwind uwtable
define linkonce_odr ptr @_ZNKSt10_HashtableIiSt4pairIKiSt10shared_ptrI9FaceGroupEESaIS5_ENSt8__detail10_Select1stESt8equal_toIiESt4hashIiENS7_18_Mod_range_hashingENS7_20_Default_ranged_hashENS7_20_Prime_rehash_policyENS7_17_Hashtable_traitsILb0ELb0ELb1EEEE3endEv(ptr noundef nonnull align 8 dereferenceable(56) %0) #4 comdat align 2 {
  %2 = alloca %"struct.std::__detail::_Node_const_iterator.295", align 8
  %3 = alloca ptr, align 8
  store ptr %0, ptr %3, align 8
  call void @_ZNSt8__detail20_Node_const_iteratorISt4pairIKiSt10shared_ptrI9FaceGroupEELb0ELb0EEC2EPNS_10_Hash_nodeIS6_Lb0EEE(ptr noundef nonnull align 8 dereferenceable(8) %2, ptr noundef null) #3
  %4 = getelementptr inbounds %"struct.std::__detail::_Node_const_iterator.295", ptr %2, i32 0, i32 0
  %5 = getelementptr inbounds %"struct.std::__detail::_Node_iterator_base.284", ptr %4, i32 0, i32 0
  %6 = load ptr, ptr %5, align 8
  ret ptr %6
}

; Function Attrs: mustprogress nounwind uwtable
define linkonce_odr ptr @_ZNKSt10_HashtableIiSt4pairIKiSt10shared_ptrI9FaceGroupEESaIS5_ENSt8__detail10_Select1stESt8equal_toIiESt4hashIiENS7_18_Mod_range_hashingENS7_20_Default_ranged_hashENS7_20_Prime_rehash_policyENS7_17_Hashtable_traitsILb0ELb0ELb1EEEE5beginEv(ptr noundef nonnull align 8 dereferenceable(56) %0) #4 comdat align 2 {
  %2 = alloca %"struct.std::__detail::_Node_const_iterator.295", align 8
  %3 = alloca ptr, align 8
  store ptr %0, ptr %3, align 8
  %4 = load ptr, ptr %3, align 8
  %5 = call noundef ptr @_ZNKSt10_HashtableIiSt4pairIKiSt10shared_ptrI9FaceGroupEESaIS5_ENSt8__detail10_Select1stESt8equal_toIiESt4hashIiENS7_18_Mod_range_hashingENS7_20_Default_ranged_hashENS7_20_Prime_rehash_policyENS7_17_Hashtable_traitsILb0ELb0ELb1EEEE8_M_beginEv(ptr noundef nonnull align 8 dereferenceable(56) %4)
  call void @_ZNSt8__detail20_Node_const_iteratorISt4pairIKiSt10shared_ptrI9FaceGroupEELb0ELb0EEC2EPNS_10_Hash_nodeIS6_Lb0EEE(ptr noundef nonnull align 8 dereferenceable(8) %2, ptr noundef %5) #3
  %6 = getelementptr inbounds %"struct.std::__detail::_Node_const_iterator.295", ptr %2, i32 0, i32 0
  %7 = getelementptr inbounds %"struct.std::__detail::_Node_iterator_base.284", ptr %6, i32 0, i32 0
  %8 = load ptr, ptr %7, align 8
  ret ptr %8
}

; Function Attrs: mustprogress nounwind uwtable
define linkonce_odr noundef nonnull align 8 dereferenceable(8) ptr @_ZNSt8__detail20_Node_const_iteratorISt4pairIKiSt10shared_ptrI9FaceGroupEELb0ELb0EEppEv(ptr noundef nonnull align 8 dereferenceable(8) %0) #4 comdat align 2 {
  %2 = alloca ptr, align 8
  store ptr %0, ptr %2, align 8
  %3 = load ptr, ptr %2, align 8
  call void @_ZNSt8__detail19_Node_iterator_baseISt4pairIKiSt10shared_ptrI9FaceGroupEELb0EE7_M_incrEv(ptr noundef nonnull align 8 dereferenceable(8) %3) #3
  ret ptr %3
}

; Function Attrs: mustprogress uwtable
define noundef double @_ZNK9FaceGroup6AreaUVEv(ptr noundef nonnull align 8 dereferenceable(192) %0) #5 align 2 {
  %2 = alloca ptr, align 8
  store ptr %0, ptr %2, align 8
  %3 = load ptr, ptr %2, align 8
  %4 = getelementptr inbounds %struct.FaceGroup, ptr %3, i32 0, i32 8
  %5 = load i8, ptr %4, align 8
  %6 = trunc i8 %5 to i1
  br i1 %6, label %7, label %8

7:                                                ; preds = %1
  call void @_ZNK9FaceGroup11UpdateCacheEv(ptr noundef nonnull align 8 dereferenceable(192) %3)
  br label %8

8:                                                ; preds = %7, %1
  %9 = getelementptr inbounds %struct.FaceGroup, ptr %3, i32 0, i32 10
  %10 = getelementptr inbounds %"struct.FaceGroup::Cache", ptr %9, i32 0, i32 0
  %11 = load double, ptr %10, align 8
  ret double %11
}

; Function Attrs: mustprogress uwtable
define noundef zeroext i1 @_ZN9FaceGroup9UVFlippedEv(ptr noundef nonnull align 8 dereferenceable(192) %0) #5 align 2 {
  %2 = alloca ptr, align 8
  store ptr %0, ptr %2, align 8
  %3 = load ptr, ptr %2, align 8
  %4 = getelementptr inbounds %struct.FaceGroup, ptr %3, i32 0, i32 8
  %5 = load i8, ptr %4, align 8
  %6 = trunc i8 %5 to i1
  br i1 %6, label %7, label %8

7:                                                ; preds = %1
  call void @_ZNK9FaceGroup11UpdateCacheEv(ptr noundef nonnull align 8 dereferenceable(192) %3)
  br label %8

8:                                                ; preds = %7, %1
  %9 = getelementptr inbounds %struct.FaceGroup, ptr %3, i32 0, i32 10
  %10 = getelementptr inbounds %"struct.FaceGroup::Cache", ptr %9, i32 0, i32 5
  %11 = load i8, ptr %10, align 8
  %12 = trunc i8 %11 to i1
  ret i1 %12
}

; Function Attrs: mustprogress nounwind uwtable
define linkonce_odr noundef ptr @_ZNKSt19__shared_ptr_accessI9FaceGroupLN9__gnu_cxx12_Lock_policyE2ELb0ELb0EEptEv(ptr noundef nonnull align 1 dereferenceable(1) %0) #4 comdat align 2 {
  %2 = alloca ptr, align 8
  store ptr %0, ptr %2, align 8
  %3 = load ptr, ptr %2, align 8
  %4 = call noundef ptr @_ZNKSt19__shared_ptr_accessI9FaceGroupLN9__gnu_cxx12_Lock_policyE2ELb0ELb0EE6_M_getEv(ptr noundef nonnull align 1 dereferenceable(1) %3) #3
  ret ptr %4
}

; Function Attrs: mustprogress nounwind uwtable
define linkonce_odr noundef nonnull align 8 dereferenceable(24) ptr @_ZNKSt8__detail20_Node_const_iteratorISt4pairIKiSt10shared_ptrI9FaceGroupEELb0ELb0EEdeEv(ptr noundef nonnull align 8 dereferenceable(8) %0) #4 comdat align 2 {
  %2 = alloca ptr, align 8
  store ptr %0, ptr %2, align 8
  %3 = load ptr, ptr %2, align 8
  %4 = getelementptr inbounds %"struct.std::__detail::_Node_iterator_base.284", ptr %3, i32 0, i32 0
  %5 = load ptr, ptr %4, align 8
  %6 = getelementptr inbounds i8, ptr %5, i64 8
  %7 = call noundef nonnull align 8 dereferenceable(24) ptr @_ZNSt8__detail21_Hash_node_value_baseISt4pairIKiSt10shared_ptrI9FaceGroupEEE4_M_vEv(ptr noundef nonnull align 8 dereferenceable(24) %6) #3
  ret ptr %7
}

; Function Attrs: mustprogress nounwind uwtable
define linkonce_odr noundef zeroext i1 @_ZNSt8__detailneERKNS_19_Node_iterator_baseISt4pairIKiSt10shared_ptrI9FaceGroupEELb0EEES9_(ptr noundef nonnull align 8 dereferenceable(8) %0, ptr noundef nonnull align 8 dereferenceable(8) %1) #4 comdat {
  %3 = alloca ptr, align 8
  %4 = alloca ptr, align 8
  store ptr %0, ptr %3, align 8
  store ptr %1, ptr %4, align 8
  %5 = load ptr, ptr %3, align 8
  %6 = getelementptr inbounds %"struct.std::__detail::_Node_iterator_base.284", ptr %5, i32 0, i32 0
  %7 = load ptr, ptr %6, align 8
  %8 = load ptr, ptr %4, align 8
  %9 = getelementptr inbounds %"struct.std::__detail::_Node_iterator_base.284", ptr %8, i32 0, i32 0
  %10 = load ptr, ptr %9, align 8
  %11 = icmp ne ptr %7, %10
  ret i1 %11
}

; Function Attrs: mustprogress nounwind uwtable
define linkonce_odr ptr @_ZNKSt13unordered_mapIiSt10shared_ptrI9FaceGroupESt4hashIiESt8equal_toIiESaISt4pairIKiS2_EEE3endEv(ptr noundef nonnull align 8 dereferenceable(56) %0) #4 comdat align 2 {
  %2 = alloca %"struct.std::__detail::_Node_const_iterator.295", align 8
  %3 = alloca ptr, align 8
  store ptr %0, ptr %3, align 8
  %4 = load ptr, ptr %3, align 8
  %5 = getelementptr inbounds %"class.std::unordered_map.260", ptr %4, i32 0, i32 0
  %6 = call ptr @_ZNKSt10_HashtableIiSt4pairIKiSt10shared_ptrI9FaceGroupEESaIS5_ENSt8__detail10_Select1stESt8equal_toIiESt4hashIiENS7_18_Mod_range_hashingENS7_20_Default_ranged_hashENS7_20_Prime_rehash_policyENS7_17_Hashtable_traitsILb0ELb0ELb1EEEE3endEv(ptr noundef nonnull align 8 dereferenceable(56) %5) #3
  %7 = getelementptr inbounds %"struct.std::__detail::_Node_const_iterator.295", ptr %2, i32 0, i32 0
  %8 = getelementptr inbounds %"struct.std::__detail::_Node_iterator_base.284", ptr %7, i32 0, i32 0
  store ptr %6, ptr %8, align 8
  %9 = getelementptr inbounds %"struct.std::__detail::_Node_const_iterator.295", ptr %2, i32 0, i32 0
  %10 = getelementptr inbounds %"struct.std::__detail::_Node_iterator_base.284", ptr %9, i32 0, i32 0
  %11 = load ptr, ptr %10, align 8
  ret ptr %11
}

; Function Attrs: mustprogress nounwind uwtable
define linkonce_odr ptr @_ZNKSt13unordered_mapIiSt10shared_ptrI9FaceGroupESt4hashIiESt8equal_toIiESaISt4pairIKiS2_EEE5beginEv(ptr noundef nonnull align 8 dereferenceable(56) %0) #4 comdat align 2 {
  %2 = alloca %"struct.std::__detail::_Node_const_iterator.295", align 8
  %3 = alloca ptr, align 8
  store ptr %0, ptr %3, align 8
  %4 = load ptr, ptr %3, align 8
  %5 = getelementptr inbounds %"class.std::unordered_map.260", ptr %4, i32 0, i32 0
  %6 = call ptr @_ZNKSt10_HashtableIiSt4pairIKiSt10shared_ptrI9FaceGroupEESaIS5_ENSt8__detail10_Select1stESt8equal_toIiESt4hashIiENS7_18_Mod_range_hashingENS7_20_Default_ranged_hashENS7_20_Prime_rehash_policyENS7_17_Hashtable_traitsILb0ELb0ELb1EEEE5beginEv(ptr noundef nonnull align 8 dereferenceable(56) %5) #3
  %7 = getelementptr inbounds %"struct.std::__detail::_Node_const_iterator.295", ptr %2, i32 0, i32 0
  %8 = getelementptr inbounds %"struct.std::__detail::_Node_iterator_base.284", ptr %7, i32 0, i32 0
  store ptr %6, ptr %8, align 8
  %9 = getelementptr inbounds %"struct.std::__detail::_Node_const_iterator.295", ptr %2, i32 0, i32 0
  %10 = getelementptr inbounds %"struct.std::__detail::_Node_iterator_base.284", ptr %9, i32 0, i32 0
  %11 = load ptr, ptr %10, align 8
  ret ptr %11
}

; Function Attrs: mustprogress uwtable
define noundef double @_ZNK9MeshGraph12SignedAreaUVEv(ptr noundef nonnull align 8 dereferenceable(80) %0) #5 align 2 {
  %2 = alloca ptr, align 8
  %3 = alloca double, align 8
  %4 = alloca ptr, align 8
  %5 = alloca %"struct.std::__detail::_Node_const_iterator.295", align 8
  %6 = alloca %"struct.std::__detail::_Node_const_iterator.295", align 8
  %7 = alloca ptr, align 8
  store ptr %0, ptr %2, align 8
  %8 = load ptr, ptr %2, align 8
  store double 0.000000e+00, ptr %3, align 8
  %9 = getelementptr inbounds %struct.MeshGraph, ptr %8, i32 0, i32 1
  store ptr %9, ptr %4, align 8
  %10 = load ptr, ptr %4, align 8
  %11 = call ptr @_ZNKSt13unordered_mapIiSt10shared_ptrI9FaceGroupESt4hashIiESt8equal_toIiESaISt4pairIKiS2_EEE5beginEv(ptr noundef nonnull align 8 dereferenceable(56) %10) #3
  %12 = getelementptr inbounds %"struct.std::__detail::_Node_const_iterator.295", ptr %5, i32 0, i32 0
  %13 = getelementptr inbounds %"struct.std::__detail::_Node_iterator_base.284", ptr %12, i32 0, i32 0
  store ptr %11, ptr %13, align 8
  %14 = load ptr, ptr %4, align 8
  %15 = call ptr @_ZNKSt13unordered_mapIiSt10shared_ptrI9FaceGroupESt4hashIiESt8equal_toIiESaISt4pairIKiS2_EEE3endEv(ptr noundef nonnull align 8 dereferenceable(56) %14) #3
  %16 = getelementptr inbounds %"struct.std::__detail::_Node_const_iterator.295", ptr %6, i32 0, i32 0
  %17 = getelementptr inbounds %"struct.std::__detail::_Node_iterator_base.284", ptr %16, i32 0, i32 0
  store ptr %15, ptr %17, align 8
  br label %18

18:                                               ; preds = %34, %1
  %19 = call noundef zeroext i1 @_ZNSt8__detailneERKNS_19_Node_iterator_baseISt4pairIKiSt10shared_ptrI9FaceGroupEELb0EEES9_(ptr noundef nonnull align 8 dereferenceable(8) %5, ptr noundef nonnull align 8 dereferenceable(8) %6) #3
  br i1 %19, label %20, label %36

20:                                               ; preds = %18
  %21 = call noundef nonnull align 8 dereferenceable(24) ptr @_ZNKSt8__detail20_Node_const_iteratorISt4pairIKiSt10shared_ptrI9FaceGroupEELb0ELb0EEdeEv(ptr noundef nonnull align 8 dereferenceable(8) %5) #3
  store ptr %21, ptr %7, align 8
  %22 = load ptr, ptr %7, align 8
  %23 = getelementptr inbounds %"struct.std::pair.285", ptr %22, i32 0, i32 1
  %24 = call noundef ptr @_ZNKSt19__shared_ptr_accessI9FaceGroupLN9__gnu_cxx12_Lock_policyE2ELb0ELb0EEptEv(ptr noundef nonnull align 1 dereferenceable(1) %23) #3
  %25 = call noundef zeroext i1 @_ZN9FaceGroup9UVFlippedEv(ptr noundef nonnull align 8 dereferenceable(192) %24)
  %26 = select i1 %25, i32 -1, i32 1
  %27 = sitofp i32 %26 to double
  %28 = load ptr, ptr %7, align 8
  %29 = getelementptr inbounds %"struct.std::pair.285", ptr %28, i32 0, i32 1
  %30 = call noundef ptr @_ZNKSt19__shared_ptr_accessI9FaceGroupLN9__gnu_cxx12_Lock_policyE2ELb0ELb0EEptEv(ptr noundef nonnull align 1 dereferenceable(1) %29) #3
  %31 = call noundef double @_ZNK9FaceGroup6AreaUVEv(ptr noundef nonnull align 8 dereferenceable(192) %30)
  %32 = load double, ptr %3, align 8
  %33 = call double @llvm.fmuladd.f64(double %27, double %31, double %32)
  store double %33, ptr %3, align 8
  br label %34

34:                                               ; preds = %20
  %35 = call noundef nonnull align 8 dereferenceable(8) ptr @_ZNSt8__detail20_Node_const_iteratorISt4pairIKiSt10shared_ptrI9FaceGroupEELb0ELb0EEppEv(ptr noundef nonnull align 8 dereferenceable(8) %5) #3
  br label %18

36:                                               ; preds = %18
  %37 = load double, ptr %3, align 8
  ret double %37
}