; Function Attrs: mustprogress nofree norecurse nosync nounwind memory(readwrite, inaccessiblemem: none) uwtable
define noundef double @_ZNK9MeshGraph12SignedAreaUVEv(ptr nocapture noundef nonnull readonly align 8 dereferenceable(80) %0) local_unnamed_addr #18 align 2 {
  %2 = getelementptr inbounds i8, ptr %0, i64 24
  %.sroa.08.012 = load ptr, ptr %2, align 8
  %.not13 = icmp eq ptr %.sroa.08.012, null
  br i1 %.not13, label %._crit_edge, label %.lr.ph

.lr.ph:                                           ; preds = %1, %_ZNK9FaceGroup6AreaUVEv.exit
  %.sroa.08.015 = phi ptr [ %.sroa.08.0, %_ZNK9FaceGroup6AreaUVEv.exit ], [ %.sroa.08.012, %1 ]
  %.014 = phi double [ %21, %_ZNK9FaceGroup6AreaUVEv.exit ], [ 0.000000e+00, %1 ]
  %3 = getelementptr inbounds i8, ptr %.sroa.08.015, i64 16
  %4 = load ptr, ptr %3, align 8
  %5 = getelementptr inbounds i8, ptr %4, i64 120
  %6 = load i8, ptr %5, align 8
  %7 = and i8 %6, 1
  %.not.i = icmp eq i8 %7, 0
  br i1 %.not.i, label %_ZN9FaceGroup9UVFlippedEv.exit.thread, label %_ZN9FaceGroup9UVFlippedEv.exit

_ZN9FaceGroup9UVFlippedEv.exit.thread:            ; preds = %.lr.ph
  %8 = getelementptr inbounds i8, ptr %4, i64 184
  %9 = load i8, ptr %8, align 8
  %10 = and i8 %9, 1
  %.not1119 = icmp eq i8 %10, 0
  %11 = select i1 %.not1119, double 1.000000e+00, double -1.000000e+00
  br label %_ZNK9FaceGroup6AreaUVEv.exit

_ZN9FaceGroup9UVFlippedEv.exit:                   ; preds = %.lr.ph
  tail call void @_ZNK9FaceGroup11UpdateCacheEv(ptr noundef nonnull align 8 dereferenceable(192) %4)
  %.pre = load ptr, ptr %3, align 8
  %.phi.trans.insert = getelementptr inbounds i8, ptr %.pre, i64 120
  %.pre16 = load i8, ptr %.phi.trans.insert, align 8
  %.pre17 = and i8 %.pre16, 1
  %12 = getelementptr inbounds i8, ptr %4, i64 184
  %13 = load i8, ptr %12, align 8
  %14 = and i8 %13, 1
  %.not11 = icmp eq i8 %14, 0
  %15 = select i1 %.not11, double 1.000000e+00, double -1.000000e+00
  %.not.i7 = icmp eq i8 %.pre17, 0
  br i1 %.not.i7, label %_ZNK9FaceGroup6AreaUVEv.exit, label %16

16:                                               ; preds = %_ZN9FaceGroup9UVFlippedEv.exit
  tail call void @_ZNK9FaceGroup11UpdateCacheEv(ptr noundef nonnull align 8 dereferenceable(192) %.pre)
  br label %_ZNK9FaceGroup6AreaUVEv.exit

_ZNK9FaceGroup6AreaUVEv.exit:                     ; preds = %_ZN9FaceGroup9UVFlippedEv.exit.thread, %_ZN9FaceGroup9UVFlippedEv.exit, %16
  %17 = phi double [ %11, %_ZN9FaceGroup9UVFlippedEv.exit.thread ], [ %15, %_ZN9FaceGroup9UVFlippedEv.exit ], [ %15, %16 ]
  %18 = phi ptr [ %4, %_ZN9FaceGroup9UVFlippedEv.exit.thread ], [ %.pre, %_ZN9FaceGroup9UVFlippedEv.exit ], [ %.pre, %16 ]
  %19 = getelementptr inbounds i8, ptr %18, i64 128
  %20 = load double, ptr %19, align 8
  %21 = tail call double @llvm.fmuladd.f64(double %17, double %20, double %.014)
  %.sroa.08.0 = load ptr, ptr %.sroa.08.015, align 8
  %.not = icmp eq ptr %.sroa.08.0, null
  br i1 %.not, label %._crit_edge, label %.lr.ph

._crit_edge:                                      ; preds = %_ZNK9FaceGroup6AreaUVEv.exit, %1
  %.0.lcssa = phi double [ 0.000000e+00, %1 ], [ %21, %_ZNK9FaceGroup6AreaUVEv.exit ]
  ret double %.0.lcssa
}